target datalayout = "e-m:e-p270:32:32-p271:32:32-p272:64:64-i64:64-i128:128-f80:128-n8:16:32:64-S128"
target triple = "x86_64-pc-linux-gnu"

%struct._Node = type { %union.anon.2 }
%union.anon.2 = type { %struct.BagNode }
%struct.BagNode = type { i32, i32, ptr, ptr, i32, %union.anon.4, i32, i32, i32, i32, i32 }
%union.anon.4 = type { %struct.anon.7 }
%struct.anon.7 = type { ptr, ptr }
%struct.anon.3 = type { i32, i32, ptr, ptr }
%struct.GimmickNode = type { i32, i32, ptr, i32, i32, i32, i32 }
%struct.ParseEnv = type { i32, i32, ptr, ptr, i32, i32, i32, ptr, ptr, ptr, ptr, ptr, i32, i32, i32, i32, [8 x %struct.MemEnv], ptr, i32, i32, i32, i32, ptr, ptr, i32, i32 }
%struct.MemEnv = type { ptr, ptr }

; Function Attrs: nounwind uwtable
define internal i32 @node_set_fail(ptr noundef %0) #0 {
  %2 = alloca ptr, align 8
  store ptr %0, ptr %2, align 8, !tbaa !111
  %3 = load ptr, ptr %2, align 8, !tbaa !111
  %4 = getelementptr inbounds nuw %struct._Node, ptr %3, i32 0, i32 0
  %5 = getelementptr inbounds nuw %struct.anon.3, ptr %4, i32 0, i32 0
  store i32 10, ptr %5, align 8, !tbaa !12
  %6 = load ptr, ptr %2, align 8, !tbaa !111
  %7 = getelementptr inbounds nuw %struct._Node, ptr %6, i32 0, i32 0
  %8 = getelementptr inbounds nuw %struct.GimmickNode, ptr %7, i32 0, i32 3
  store i32 0, ptr %8, align 8, !tbaa !12
  ret i32 0
}

; Function Attrs: nounwind uwtable
define internal ptr @node_new() #0 {
  %1 = alloca ptr, align 8
  %2 = alloca ptr, align 8
  %3 = alloca i32, align 4
  call void @llvm.lifetime.start.p0(i64 8, ptr %2) #8
  %4 = call noalias ptr @malloc(i64 noundef 72) #9
  store ptr %4, ptr %2, align 8, !tbaa !111
  %5 = load ptr, ptr %2, align 8, !tbaa !111
  %6 = icmp eq ptr %5, null
  br i1 %6, label %7, label %8

7:                                                ; preds = %0
  store ptr null, ptr %1, align 8
  store i32 1, ptr %3, align 4
  br label %11

8:                                                ; preds = %0
  %9 = load ptr, ptr %2, align 8, !tbaa !111
  call void @llvm.memset.p0.i64(ptr align 8 %9, i8 0, i64 72, i1 false)
  %10 = load ptr, ptr %2, align 8, !tbaa !111
  store ptr %10, ptr %1, align 8
  store i32 1, ptr %3, align 4
  br label %11

11:                                               ; preds = %8, %7
  call void @llvm.lifetime.end.p0(i64 8, ptr %2) #8
  %12 = load ptr, ptr %1, align 8
  ret ptr %12
}

; Function Attrs: nounwind uwtable
define dso_local void @onig_node_free(ptr noundef %0) #0 {
  %2 = alloca ptr, align 8
  store ptr %0, ptr %2, align 8, !tbaa !111
  %3 = load ptr, ptr %2, align 8, !tbaa !111
  %4 = icmp eq ptr %3, null
  br i1 %4, label %5, label %6

5:                                                ; preds = %1
  br label %9

6:                                                ; preds = %1
  %7 = load ptr, ptr %2, align 8, !tbaa !111
  call void @node_free_body(ptr noundef %7)
  %8 = load ptr, ptr %2, align 8, !tbaa !111
  call void @free(ptr noundef %8) #8
  br label %9

9:                                                ; preds = %6, %5
  ret void
}

; Function Attrs: nounwind uwtable
define internal ptr @make_alt(i32 noundef %0, ptr noundef %1) #0 {
  %3 = alloca i32, align 4
  %4 = alloca ptr, align 8
  store i32 %0, ptr %3, align 4, !tbaa !10
  store ptr %1, ptr %4, align 8, !tbaa !119
  %5 = load i32, ptr %3, align 4, !tbaa !10
  %6 = load ptr, ptr %4, align 8, !tbaa !119
  %7 = call ptr @make_list_or_alt(i32 noundef 8, i32 noundef %5, ptr noundef %6)
  ret ptr %7
}

; Function Attrs: nounwind uwtable
define internal ptr @make_list(i32 noundef %0, ptr noundef %1) #0 {
  %3 = alloca i32, align 4
  %4 = alloca ptr, align 8
  store i32 %0, ptr %3, align 4, !tbaa !10
  store ptr %1, ptr %4, align 8, !tbaa !119
  %5 = load i32, ptr %3, align 4, !tbaa !10
  %6 = load ptr, ptr %4, align 8, !tbaa !119
  %7 = call ptr @make_list_or_alt(i32 noundef 7, i32 noundef %5, ptr noundef %6)
  ret ptr %7
}

; Function Attrs: nounwind uwtable
define internal i32 @node_new_fail(ptr noundef %0, ptr noundef %1) #0 {
  %3 = alloca i32, align 4
  %4 = alloca ptr, align 8
  %5 = alloca ptr, align 8
  store ptr %0, ptr %4, align 8, !tbaa !119
  store ptr %1, ptr %5, align 8, !tbaa !9
  %6 = call ptr @node_new()
  %7 = load ptr, ptr %4, align 8, !tbaa !119
  store ptr %6, ptr %7, align 8, !tbaa !111
  %8 = load ptr, ptr %4, align 8, !tbaa !119
  %9 = load ptr, ptr %8, align 8, !tbaa !111
  %10 = icmp eq ptr %9, null
  br i1 %10, label %11, label %12

11:                                               ; preds = %2
  store i32 -5, ptr %3, align 4
  br label %16

12:                                               ; preds = %2
  %13 = load ptr, ptr %4, align 8, !tbaa !119
  %14 = load ptr, ptr %13, align 8, !tbaa !111
  %15 = call i32 @node_set_fail(ptr noundef %14)
  store i32 %15, ptr %3, align 4
  br label %16

16:                                               ; preds = %12, %11
  %17 = load i32, ptr %3, align 4
  ret i32 %17
}

; Function Attrs: nounwind uwtable
define internal i32 @node_new_update_var_gimmick(ptr noundef %0, i32 noundef %1, i32 noundef %2, ptr noundef %3) #0 {
  %5 = alloca i32, align 4
  %6 = alloca ptr, align 8
  %7 = alloca i32, align 4
  %8 = alloca i32, align 4
  %9 = alloca ptr, align 8
  store ptr %0, ptr %6, align 8, !tbaa !119
  store i32 %1, ptr %7, align 4, !tbaa !10
  store i32 %2, ptr %8, align 4, !tbaa !10
  store ptr %3, ptr %9, align 8, !tbaa !9
  %10 = call ptr @node_new()
  %11 = load ptr, ptr %6, align 8, !tbaa !119
  store ptr %10, ptr %11, align 8, !tbaa !111
  %12 = load ptr, ptr %6, align 8, !tbaa !119
  %13 = load ptr, ptr %12, align 8, !tbaa !111
  %14 = icmp eq ptr %13, null
  br i1 %14, label %15, label %16

15:                                               ; preds = %4
  store i32 -5, ptr %5, align 4
  br label %35

16:                                               ; preds = %4
  %17 = load ptr, ptr %6, align 8, !tbaa !119
  %18 = load ptr, ptr %17, align 8, !tbaa !111
  %19 = getelementptr inbounds nuw %struct._Node, ptr %18, i32 0, i32 0
  %20 = getelementptr inbounds nuw %struct.anon.3, ptr %19, i32 0, i32 0
  store i32 10, ptr %20, align 8, !tbaa !12
  %21 = load i32, ptr %8, align 4, !tbaa !10
  %22 = load ptr, ptr %6, align 8, !tbaa !119
  %23 = load ptr, ptr %22, align 8, !tbaa !111
  %24 = getelementptr inbounds nuw %struct._Node, ptr %23, i32 0, i32 0
  %25 = getelementptr inbounds nuw %struct.GimmickNode, ptr %24, i32 0, i32 6
  store i32 %21, ptr %25, align 4, !tbaa !12
  %26 = load ptr, ptr %6, align 8, !tbaa !119
  %27 = load ptr, ptr %26, align 8, !tbaa !111
  %28 = getelementptr inbounds nuw %struct._Node, ptr %27, i32 0, i32 0
  %29 = getelementptr inbounds nuw %struct.GimmickNode, ptr %28, i32 0, i32 3
  store i32 2, ptr %29, align 8, !tbaa !12
  %30 = load i32, ptr %7, align 4, !tbaa !10
  %31 = load ptr, ptr %6, align 8, !tbaa !119
  %32 = load ptr, ptr %31, align 8, !tbaa !111
  %33 = getelementptr inbounds nuw %struct._Node, ptr %32, i32 0, i32 0
  %34 = getelementptr inbounds nuw %struct.GimmickNode, ptr %33, i32 0, i32 4
  store i32 %30, ptr %34, align 4, !tbaa !12
  store i32 0, ptr %5, align 4
  br label %35

35:                                               ; preds = %16, %15
  %36 = load i32, ptr %5, align 4
  ret i32 %36
}

; Function Attrs: nounwind uwtable
define internal i32 @node_new_save_gimmick(ptr noundef %0, i32 noundef %1, ptr noundef %2) #0 {
  %4 = alloca i32, align 4
  %5 = alloca ptr, align 8
  %6 = alloca i32, align 4
  %7 = alloca ptr, align 8
  %8 = alloca i32, align 4
  %9 = alloca i32, align 4
  store ptr %0, ptr %5, align 8, !tbaa !119
  store i32 %1, ptr %6, align 4, !tbaa !10
  store ptr %2, ptr %7, align 8, !tbaa !9
  call void @llvm.lifetime.start.p0(i64 4, ptr %8) #8
  br label %10

10:                                               ; preds = %3
  %11 = load ptr, ptr %7, align 8, !tbaa !9
  %12 = getelementptr inbounds nuw %struct.ParseEnv, ptr %11, i32 0, i32 20
  %13 = load i32, ptr %12, align 8, !tbaa !178
  %14 = add nsw i32 %13, 1
  store i32 %14, ptr %12, align 8, !tbaa !178
  store i32 %13, ptr %8, align 4, !tbaa !10
  br label %15

15:                                               ; preds = %10
  br label %16

16:                                               ; preds = %15
  %17 = call ptr @node_new()
  %18 = load ptr, ptr %5, align 8, !tbaa !119
  store ptr %17, ptr %18, align 8, !tbaa !111
  %19 = load ptr, ptr %5, align 8, !tbaa !119
  %20 = load ptr, ptr %19, align 8, !tbaa !111
  %21 = icmp eq ptr %20, null
  br i1 %21, label %22, label %23

22:                                               ; preds = %16
  store i32 -5, ptr %4, align 4
  store i32 1, ptr %9, align 4
  br label %42

23:                                               ; preds = %16
  %24 = load ptr, ptr %5, align 8, !tbaa !119
  %25 = load ptr, ptr %24, align 8, !tbaa !111
  %26 = getelementptr inbounds nuw %struct._Node, ptr %25, i32 0, i32 0
  %27 = getelementptr inbounds nuw %struct.anon.3, ptr %26, i32 0, i32 0
  store i32 10, ptr %27, align 8, !tbaa !12
  %28 = load i32, ptr %8, align 4, !tbaa !10
  %29 = load ptr, ptr %5, align 8, !tbaa !119
  %30 = load ptr, ptr %29, align 8, !tbaa !111
  %31 = getelementptr inbounds nuw %struct._Node, ptr %30, i32 0, i32 0
  %32 = getelementptr inbounds nuw %struct.GimmickNode, ptr %31, i32 0, i32 6
  store i32 %28, ptr %32, align 4, !tbaa !12
  %33 = load ptr, ptr %5, align 8, !tbaa !119
  %34 = load ptr, ptr %33, align 8, !tbaa !111
  %35 = getelementptr inbounds nuw %struct._Node, ptr %34, i32 0, i32 0
  %36 = getelementptr inbounds nuw %struct.GimmickNode, ptr %35, i32 0, i32 3
  store i32 1, ptr %36, align 8, !tbaa !12
  %37 = load i32, ptr %6, align 4, !tbaa !10
  %38 = load ptr, ptr %5, align 8, !tbaa !119
  %39 = load ptr, ptr %38, align 8, !tbaa !111
  %40 = getelementptr inbounds nuw %struct._Node, ptr %39, i32 0, i32 0
  %41 = getelementptr inbounds nuw %struct.GimmickNode, ptr %40, i32 0, i32 4
  store i32 %37, ptr %41, align 4, !tbaa !12
  store i32 0, ptr %4, align 4
  store i32 1, ptr %9, align 4
  br label %42

42:                                               ; preds = %23, %22
  call void @llvm.lifetime.end.p0(i64 4, ptr %8) #8
  %43 = load i32, ptr %4, align 4
  ret i32 %43
}

; Function Attrs: nounwind uwtable
define internal i32 @make_range_clear(ptr noundef %0, ptr noundef %1) #0 {
  %3 = alloca i32, align 4
  %4 = alloca ptr, align 8
  %5 = alloca ptr, align 8
  %6 = alloca i32, align 4
  %7 = alloca i32, align 4
  %8 = alloca ptr, align 8
  %9 = alloca ptr, align 8
  %10 = alloca [2 x ptr], align 16
  %11 = alloca i32, align 4
  store ptr %0, ptr %4, align 8, !tbaa !119
  store ptr %1, ptr %5, align 8, !tbaa !9
  call void @llvm.lifetime.start.p0(i64 4, ptr %6) #8
  call void @llvm.lifetime.start.p0(i64 4, ptr %7) #8
  call void @llvm.lifetime.start.p0(i64 8, ptr %8) #8
  call void @llvm.lifetime.start.p0(i64 8, ptr %9) #8
  call void @llvm.lifetime.start.p0(i64 16, ptr %10) #8
  %12 = load ptr, ptr %4, align 8, !tbaa !119
  store ptr null, ptr %12, align 8, !tbaa !111
  %13 = getelementptr inbounds [2 x ptr], ptr %10, i64 0, i64 1
  store ptr null, ptr %13, align 8, !tbaa !111
  %14 = getelementptr inbounds [2 x ptr], ptr %10, i64 0, i64 0
  store ptr null, ptr %14, align 16, !tbaa !111
  store ptr null, ptr %8, align 8, !tbaa !111
  %15 = load ptr, ptr %5, align 8, !tbaa !9
  %16 = call i32 @node_new_save_gimmick(ptr noundef %8, i32 noundef 2, ptr noundef %15)
  store i32 %16, ptr %6, align 4, !tbaa !10
  %17 = load i32, ptr %6, align 4, !tbaa !10
  %18 = icmp ne i32 %17, 0
  br i1 %18, label %19, label %20

19:                                               ; preds = %2
  br label %86

20:                                               ; preds = %2
  %21 = load ptr, ptr %8, align 8, !tbaa !111
  %22 = getelementptr inbounds nuw %struct._Node, ptr %21, i32 0, i32 0
  %23 = getelementptr inbounds nuw %struct.GimmickNode, ptr %22, i32 0, i32 6
  %24 = load i32, ptr %23, align 4, !tbaa !12
  store i32 %24, ptr %7, align 4, !tbaa !10
  %25 = getelementptr inbounds [2 x ptr], ptr %10, i64 0, i64 0
  %26 = load i32, ptr %7, align 4, !tbaa !10
  %27 = load ptr, ptr %5, align 8, !tbaa !9
  %28 = call i32 @node_new_update_var_gimmick(ptr noundef %25, i32 noundef 2, i32 noundef %26, ptr noundef %27)
  store i32 %28, ptr %6, align 4, !tbaa !10
  %29 = load i32, ptr %6, align 4, !tbaa !10
  %30 = icmp ne i32 %29, 0
  br i1 %30, label %31, label %32

31:                                               ; preds = %20
  br label %86

32:                                               ; preds = %20
  %33 = getelementptr inbounds [2 x ptr], ptr %10, i64 0, i64 1
  %34 = load ptr, ptr %5, align 8, !tbaa !9
  %35 = call i32 @node_new_fail(ptr noundef %33, ptr noundef %34)
  store i32 %35, ptr %6, align 4, !tbaa !10
  %36 = load i32, ptr %6, align 4, !tbaa !10
  %37 = icmp ne i32 %36, 0
  br i1 %37, label %38, label %39

38:                                               ; preds = %32
  br label %86

39:                                               ; preds = %32
  %40 = getelementptr inbounds [2 x ptr], ptr %10, i64 0, i64 0
  %41 = call ptr @make_list(i32 noundef 2, ptr noundef %40)
  store ptr %41, ptr %9, align 8, !tbaa !111
  %42 = load ptr, ptr %9, align 8, !tbaa !111
  %43 = icmp eq ptr %42, null
  br i1 %43, label %44, label %45

44:                                               ; preds = %39
  br label %85

45:                                               ; preds = %39
  %46 = getelementptr inbounds [2 x ptr], ptr %10, i64 0, i64 0
  store ptr null, ptr %46, align 16, !tbaa !111
  %47 = load ptr, ptr %9, align 8, !tbaa !111
  %48 = getelementptr inbounds [2 x ptr], ptr %10, i64 0, i64 1
  store ptr %47, ptr %48, align 8, !tbaa !111
  %49 = getelementptr inbounds [2 x ptr], ptr %10, i64 0, i64 0
  %50 = load ptr, ptr %5, align 8, !tbaa !9
  %51 = call i32 @node_new_update_var_gimmick(ptr noundef %49, i32 noundef 5, i32 noundef 0, ptr noundef %50)
  store i32 %51, ptr %6, align 4, !tbaa !10
  %52 = load i32, ptr %6, align 4, !tbaa !10
  %53 = icmp ne i32 %52, 0
  br i1 %53, label %54, label %55

54:                                               ; preds = %45
  br label %86

55:                                               ; preds = %45
  %56 = getelementptr inbounds [2 x ptr], ptr %10, i64 0, i64 0
  %57 = load ptr, ptr %56, align 16, !tbaa !111
  %58 = getelementptr inbounds nuw %struct._Node, ptr %57, i32 0, i32 0
  %59 = getelementptr inbounds nuw %struct.anon.3, ptr %58, i32 0, i32 1
  %60 = load i32, ptr %59, align 4, !tbaa !12
  %61 = or i32 %60, 16777216
  store i32 %61, ptr %59, align 4, !tbaa !12
  %62 = getelementptr inbounds [2 x ptr], ptr %10, i64 0, i64 0
  %63 = call ptr @make_alt(i32 noundef 2, ptr noundef %62)
  store ptr %63, ptr %9, align 8, !tbaa !111
  %64 = load ptr, ptr %9, align 8, !tbaa !111
  %65 = icmp eq ptr %64, null
  br i1 %65, label %66, label %67

66:                                               ; preds = %55
  br label %85

67:                                               ; preds = %55
  %68 = load ptr, ptr %9, align 8, !tbaa !111
  %69 = getelementptr inbounds nuw %struct._Node, ptr %68, i32 0, i32 0
  %70 = getelementptr inbounds nuw %struct.anon.3, ptr %69, i32 0, i32 1
  %71 = load i32, ptr %70, align 4, !tbaa !12
  %72 = or i32 %71, 524288
  store i32 %72, ptr %70, align 4, !tbaa !12
  %73 = load ptr, ptr %8, align 8, !tbaa !111
  %74 = getelementptr inbounds [2 x ptr], ptr %10, i64 0, i64 0
  store ptr %73, ptr %74, align 16, !tbaa !111
  %75 = load ptr, ptr %9, align 8, !tbaa !111
  %76 = getelementptr inbounds [2 x ptr], ptr %10, i64 0, i64 1
  store ptr %75, ptr %76, align 8, !tbaa !111
  store ptr null, ptr %8, align 8, !tbaa !111
  %77 = getelementptr inbounds [2 x ptr], ptr %10, i64 0, i64 0
  %78 = call ptr @make_list(i32 noundef 2, ptr noundef %77)
  store ptr %78, ptr %9, align 8, !tbaa !111
  %79 = load ptr, ptr %9, align 8, !tbaa !111
  %80 = icmp eq ptr %79, null
  br i1 %80, label %81, label %82

81:                                               ; preds = %67
  br label %85

82:                                               ; preds = %67
  %83 = load ptr, ptr %9, align 8, !tbaa !111
  %84 = load ptr, ptr %4, align 8, !tbaa !119
  store ptr %83, ptr %84, align 8, !tbaa !111
  store i32 0, ptr %3, align 4
  store i32 1, ptr %11, align 4
  br label %93

85:                                               ; preds = %81, %66, %44
  store i32 -5, ptr %6, align 4, !tbaa !10
  br label %86

86:                                               ; preds = %85, %54, %38, %31, %19
  %87 = load ptr, ptr %8, align 8, !tbaa !111
  call void @onig_node_free(ptr noundef %87)
  %88 = getelementptr inbounds [2 x ptr], ptr %10, i64 0, i64 0
  %89 = load ptr, ptr %88, align 16, !tbaa !111
  call void @onig_node_free(ptr noundef %89)
  %90 = getelementptr inbounds [2 x ptr], ptr %10, i64 0, i64 1
  %91 = load ptr, ptr %90, align 8, !tbaa !111
  call void @onig_node_free(ptr noundef %91)
  %92 = load i32, ptr %6, align 4, !tbaa !10
  store i32 %92, ptr %3, align 4
  store i32 1, ptr %11, align 4
  br label %93

93:                                               ; preds = %86, %82
  call void @llvm.lifetime.end.p0(i64 16, ptr %10) #8
  call void @llvm.lifetime.end.p0(i64 8, ptr %9) #8
  call void @llvm.lifetime.end.p0(i64 8, ptr %8) #8
  call void @llvm.lifetime.end.p0(i64 4, ptr %7) #8
  call void @llvm.lifetime.end.p0(i64 4, ptr %6) #8
  %94 = load i32, ptr %3, align 4
  ret i32 %94
}