; Function Attrs: nounwind uwtable
define internal fastcc range(i32 -5, 1) i32 @make_range_clear(ptr noundef nonnull writeonly captures(none) initializes((0, 8)) %0, ptr noundef captures(none) %1) unnamed_addr #2 {
  %3 = alloca [2 x ptr], align 16
  call void @llvm.lifetime.start.p0(i64 16, ptr nonnull %3) #24
  store ptr null, ptr %0, align 8, !tbaa !112
  %4 = getelementptr inbounds nuw i8, ptr %3, i64 8
  %5 = getelementptr inbounds nuw i8, ptr %1, i64 240
  %6 = load i32, ptr %5, align 8, !tbaa !205
  %7 = add nsw i32 %6, 1
  store i32 %7, ptr %5, align 8, !tbaa !205
  %calloc.i.i = tail call noalias noundef dereferenceable_or_null(72) ptr @calloc(i64 1, i64 72)
  %8 = icmp eq ptr %calloc.i.i, null
  br i1 %8, label %onig_node_free.exit38, label %9

9:                                                ; preds = %2
  store i32 10, ptr %calloc.i.i, align 8, !tbaa !10
  %10 = getelementptr inbounds nuw i8, ptr %calloc.i.i, i64 28
  store i32 %6, ptr %10, align 4, !tbaa !10
  %11 = getelementptr inbounds nuw i8, ptr %calloc.i.i, i64 16
  store i32 1, ptr %11, align 8, !tbaa !10
  %12 = getelementptr inbounds nuw i8, ptr %calloc.i.i, i64 20
  store i32 2, ptr %12, align 4, !tbaa !10
  %calloc.i.i30 = tail call noalias noundef dereferenceable_or_null(72) ptr @calloc(i64 1, i64 72)
  store ptr %calloc.i.i30, ptr %3, align 16, !tbaa !112
  %13 = icmp eq ptr %calloc.i.i30, null
  br i1 %13, label %onig_node_free.exit, label %14

14:                                               ; preds = %9
  store i32 10, ptr %calloc.i.i30, align 8, !tbaa !10
  %15 = getelementptr inbounds nuw i8, ptr %calloc.i.i30, i64 28
  store i32 %6, ptr %15, align 4, !tbaa !10
  %16 = getelementptr inbounds nuw i8, ptr %calloc.i.i30, i64 16
  store i32 2, ptr %16, align 8, !tbaa !10
  %17 = getelementptr inbounds nuw i8, ptr %calloc.i.i30, i64 20
  store i32 2, ptr %17, align 4, !tbaa !10
  %calloc.i.i32 = tail call noalias noundef dereferenceable_or_null(72) ptr @calloc(i64 1, i64 72)
  store ptr %calloc.i.i32, ptr %4, align 8, !tbaa !112
  %18 = icmp eq ptr %calloc.i.i32, null
  br i1 %18, label %onig_node_free.exit, label %19

19:                                               ; preds = %14
  store i32 10, ptr %calloc.i.i32, align 8, !tbaa !10
  %20 = call fastcc noundef ptr @make_list_or_alt(i32 noundef 7, i32 noundef 2, ptr noundef nonnull readonly %3)
  %21 = icmp eq ptr %20, null
  br i1 %21, label %onig_node_free.exit, label %22

22:                                               ; preds = %19
  store ptr %20, ptr %4, align 8, !tbaa !112
  %calloc.i.i34 = tail call noalias noundef dereferenceable_or_null(72) ptr @calloc(i64 1, i64 72)
  store ptr %calloc.i.i34, ptr %3, align 16, !tbaa !112
  %23 = icmp eq ptr %calloc.i.i34, null
  br i1 %23, label %onig_node_free.exit, label %24

24:                                               ; preds = %22
  store i32 10, ptr %calloc.i.i34, align 8, !tbaa !10
  %25 = getelementptr inbounds nuw i8, ptr %calloc.i.i34, i64 28
  store i32 0, ptr %25, align 4, !tbaa !10
  %26 = getelementptr inbounds nuw i8, ptr %calloc.i.i34, i64 16
  store i32 2, ptr %26, align 8, !tbaa !10
  %27 = getelementptr inbounds nuw i8, ptr %calloc.i.i34, i64 20
  store i32 5, ptr %27, align 4, !tbaa !10
  %28 = getelementptr inbounds nuw i8, ptr %calloc.i.i34, i64 4
  store i32 16777216, ptr %28, align 4, !tbaa !10
  %29 = call fastcc noundef ptr @make_list_or_alt(i32 noundef 8, i32 noundef 2, ptr noundef nonnull readonly %3)
  %30 = icmp eq ptr %29, null
  br i1 %30, label %onig_node_free.exit, label %31

31:                                               ; preds = %24
  %32 = getelementptr inbounds nuw i8, ptr %29, i64 4
  %33 = load i32, ptr %32, align 4, !tbaa !10
  %34 = or i32 %33, 524288
  store i32 %34, ptr %32, align 4, !tbaa !10
  store ptr %calloc.i.i, ptr %3, align 16, !tbaa !112
  store ptr %29, ptr %4, align 8, !tbaa !112
  %35 = call fastcc noundef ptr @make_list_or_alt(i32 noundef 7, i32 noundef 2, ptr noundef nonnull readonly %3)
  %36 = icmp eq ptr %35, null
  br i1 %36, label %onig_node_free.exit.thread, label %37

37:                                               ; preds = %31
  store ptr %35, ptr %0, align 8, !tbaa !112
  br label %onig_node_free.exit38

onig_node_free.exit:                              ; preds = %22, %14, %9, %24, %19
  %38 = phi ptr [ %calloc.i.i32, %19 ], [ %20, %24 ], [ null, %9 ], [ null, %14 ], [ %20, %22 ]
  %.pr60 = phi ptr [ %calloc.i.i30, %19 ], [ %calloc.i.i34, %24 ], [ null, %9 ], [ %calloc.i.i30, %14 ], [ null, %22 ]
  tail call fastcc void @node_free_body(ptr noundef nonnull %calloc.i.i)
  tail call void @free(ptr noundef nonnull %calloc.i.i) #24
  %39 = icmp eq ptr %.pr60, null
  br i1 %39, label %onig_node_free.exit37, label %onig_node_free.exit.thread

onig_node_free.exit.thread:                       ; preds = %31, %onig_node_free.exit
  %40 = phi ptr [ %38, %onig_node_free.exit ], [ %29, %31 ]
  %41 = phi ptr [ %.pr60, %onig_node_free.exit ], [ %calloc.i.i, %31 ]
  tail call fastcc void @node_free_body(ptr noundef nonnull %41)
  tail call void @free(ptr noundef nonnull %41) #24
  br label %onig_node_free.exit37

onig_node_free.exit37:                            ; preds = %onig_node_free.exit, %onig_node_free.exit.thread
  %42 = phi ptr [ %38, %onig_node_free.exit ], [ %40, %onig_node_free.exit.thread ]
  %43 = icmp eq ptr %42, null
  br i1 %43, label %onig_node_free.exit38, label %44

44:                                               ; preds = %onig_node_free.exit37
  tail call fastcc void @node_free_body(ptr noundef nonnull %42)
  tail call void @free(ptr noundef nonnull %42) #24
  br label %onig_node_free.exit38

onig_node_free.exit38:                            ; preds = %2, %44, %onig_node_free.exit37, %37
  %.0 = phi i32 [ 0, %37 ], [ -5, %onig_node_free.exit37 ], [ -5, %44 ], [ -5, %2 ]
  call void @llvm.lifetime.end.p0(i64 16, ptr nonnull %3) #24
  ret i32 %.0
}